target datalayout = "e-m:e-p270:32:32-p271:32:32-p272:64:64-i64:64-i128:128-f80:128-n8:16:32:64-S128"
target triple = "x86_64-pc-linux-gnu"

%struct.load_chained_certificates_arguments = type { i64, ptr }

@eX509CertError = internal global i64 0, align 8
@.str.35 = private unnamed_addr constant [45 x i8] c"Could not detect format of certificate data!\00", align 1

; Function Attrs: inlinehint nounwind sspstrong uwtable
define internal i32 @ERR_GET_REASON(i64 noundef %0) #4 {
  %2 = alloca i32, align 4
  %3 = alloca i64, align 8
  store i64 %0, ptr %3, align 8, !tbaa !11
  %4 = load i64, ptr %3, align 8, !tbaa !11
  %5 = and i64 %4, 2147483648
  %6 = icmp ne i64 %5, 0
  br i1 %6, label %7, label %11

7:                                                ; preds = %1
  %8 = load i64, ptr %3, align 8, !tbaa !11
  %9 = and i64 %8, 2147483647
  %10 = trunc i64 %9 to i32
  store i32 %10, ptr %2, align 4
  br label %15

11:                                               ; preds = %1
  %12 = load i64, ptr %3, align 8, !tbaa !11
  %13 = and i64 %12, 8388607
  %14 = trunc i64 %13 to i32
  store i32 %14, ptr %2, align 4
  br label %15

15:                                               ; preds = %11, %7
  %16 = load i32, ptr %2, align 4
  ret i32 %16
}

; Function Attrs: inlinehint nounwind sspstrong uwtable
define internal i64 @load_chained_certificates_append(i64 noundef %0, ptr noundef %1) #4 {
  %3 = alloca i64, align 8
  %4 = alloca ptr, align 8
  %5 = alloca %struct.load_chained_certificates_arguments, align 8
  store i64 %0, ptr %3, align 8, !tbaa !11
  store ptr %1, ptr %4, align 8, !tbaa !6
  call void @llvm.lifetime.start.p0(i64 16, ptr %5) #15
  %6 = load i64, ptr %3, align 8, !tbaa !11
  %7 = getelementptr inbounds nuw %struct.load_chained_certificates_arguments, ptr %5, i32 0, i32 0
  store i64 %6, ptr %7, align 8, !tbaa !46
  %8 = load ptr, ptr %4, align 8, !tbaa !6
  %9 = getelementptr inbounds nuw %struct.load_chained_certificates_arguments, ptr %5, i32 0, i32 1
  store ptr %8, ptr %9, align 8, !tbaa !48
  %10 = ptrtoint ptr %5 to i64
  %11 = ptrtoint ptr %5 to i64
  %12 = call i64 @rb_ensure(ptr noundef @load_chained_certificates_append_push, i64 noundef %10, ptr noundef @load_chained_certificate_append_ensure, i64 noundef %11)
  %13 = getelementptr inbounds nuw %struct.load_chained_certificates_arguments, ptr %5, i32 0, i32 0
  %14 = load i64, ptr %13, align 8, !tbaa !46
  call void @llvm.lifetime.end.p0(i64 16, ptr %5) #15
  ret i64 %14
}

; Function Attrs: nounwind sspstrong uwtable
define internal i64 @load_chained_certificates_PEM(ptr noundef %0) #0 {
  %2 = alloca i64, align 8
  %3 = alloca ptr, align 8
  %4 = alloca i64, align 8
  %5 = alloca ptr, align 8
  %6 = alloca i32, align 4
  store ptr %0, ptr %3, align 8, !tbaa !17
  call void @llvm.lifetime.start.p0(i64 8, ptr %4) #15
  store i64 4, ptr %4, align 8, !tbaa !11
  call void @llvm.lifetime.start.p0(i64 8, ptr %5) #15
  %7 = load ptr, ptr %3, align 8, !tbaa !17
  %8 = call ptr @PEM_read_bio_X509(ptr noundef %7, ptr noundef null, ptr noundef null, ptr noundef null)
  store ptr %8, ptr %5, align 8, !tbaa !6
  %9 = load ptr, ptr %5, align 8, !tbaa !6
  %10 = icmp eq ptr %9, null
  br i1 %10, label %11, label %22

11:                                               ; preds = %1
  %12 = call i64 @ERR_peek_last_error()
  %13 = call i32 @ERR_GET_REASON(i64 noundef %12)
  %14 = icmp eq i32 %13, 108
  br i1 %14, label %15, label %16

15:                                               ; preds = %11
  call void @ossl_clear_error()
  br label %16

16:                                               ; preds = %15, %11
  %17 = call i64 @ERR_peek_last_error()
  %18 = icmp ne i64 %17, 0
  br i1 %18, label %19, label %21

19:                                               ; preds = %16
  %20 = load i64, ptr @eX509CertError, align 8, !tbaa !11
  call void (i64, ptr, ...) @ossl_raise(i64 noundef %20, ptr noundef null) #16
  unreachable

21:                                               ; preds = %16
  store i64 4, ptr %2, align 8
  store i32 1, ptr %6, align 4
  br label %51

22:                                               ; preds = %1
  %23 = load ptr, ptr %5, align 8, !tbaa !6
  %24 = call i64 @load_chained_certificates_append(i64 noundef 4, ptr noundef %23)
  store i64 %24, ptr %4, align 8, !tbaa !11
  br label %25

25:                                               ; preds = %29, %22
  %26 = load ptr, ptr %3, align 8, !tbaa !17
  %27 = call ptr @PEM_read_bio_X509(ptr noundef %26, ptr noundef null, ptr noundef null, ptr noundef null)
  store ptr %27, ptr %5, align 8, !tbaa !6
  %28 = icmp ne ptr %27, null
  br i1 %28, label %29, label %33

29:                                               ; preds = %25
  %30 = load i64, ptr %4, align 8, !tbaa !11
  %31 = load ptr, ptr %5, align 8, !tbaa !6
  %32 = call i64 @load_chained_certificates_append(i64 noundef %30, ptr noundef %31)
  br label %25, !llvm.loop !45

33:                                               ; preds = %25
  %34 = call i64 @ERR_peek_last_error()
  %35 = call i32 @ERR_GET_REASON(i64 noundef %34)
  %36 = icmp eq i32 %35, 108
  br i1 %36, label %37, label %39

37:                                               ; preds = %33
  call void @ossl_clear_error()
  %38 = load i64, ptr %4, align 8, !tbaa !11
  store i64 %38, ptr %2, align 8
  store i32 1, ptr %6, align 4
  br label %51

39:                                               ; preds = %33
  %40 = load ptr, ptr %3, align 8, !tbaa !17
  %41 = call i64 @BIO_ctrl(ptr noundef %40, i32 noundef 2, i64 noundef 0, ptr noundef null)
  %42 = trunc i64 %41 to i32
  %43 = icmp ne i32 %42, 0
  br i1 %43, label %44, label %49

44:                                               ; preds = %39
  %45 = call i64 @ERR_peek_last_error()
  %46 = icmp ne i64 %45, 0
  br i1 %46, label %49, label %47

47:                                               ; preds = %44
  %48 = load i64, ptr %4, align 8, !tbaa !11
  store i64 %48, ptr %2, align 8
  store i32 1, ptr %6, align 4
  br label %51

49:                                               ; preds = %44, %39
  %50 = load i64, ptr @eX509CertError, align 8, !tbaa !11
  call void (i64, ptr, ...) @ossl_raise(i64 noundef %50, ptr noundef null) #16
  unreachable

51:                                               ; preds = %47, %37, %21
  call void @llvm.lifetime.end.p0(i64 8, ptr %5) #15
  call void @llvm.lifetime.end.p0(i64 8, ptr %4) #15
  %52 = load i64, ptr %2, align 8
  ret i64 %52
}

; Function Attrs: nounwind sspstrong uwtable
define internal i64 @load_chained_certificates_DER(ptr noundef %0) #0 {
  %2 = alloca i64, align 8
  %3 = alloca ptr, align 8
  %4 = alloca ptr, align 8
  %5 = alloca i32, align 4
  store ptr %0, ptr %3, align 8, !tbaa !17
  call void @llvm.lifetime.start.p0(i64 8, ptr %4) #15
  %6 = load ptr, ptr %3, align 8, !tbaa !17
  %7 = call ptr @d2i_X509_bio(ptr noundef %6, ptr noundef null)
  store ptr %7, ptr %4, align 8, !tbaa !6
  %8 = load ptr, ptr %4, align 8, !tbaa !6
  %9 = icmp eq ptr %8, null
  br i1 %9, label %10, label %11

10:                                               ; preds = %1
  call void @ossl_clear_error()
  store i64 4, ptr %2, align 8
  store i32 1, ptr %5, align 4
  br label %14

11:                                               ; preds = %1
  %12 = load ptr, ptr %4, align 8, !tbaa !6
  %13 = call i64 @load_chained_certificates_append(i64 noundef 4, ptr noundef %12)
  store i64 %13, ptr %2, align 8
  store i32 1, ptr %5, align 4
  br label %14

14:                                               ; preds = %11, %10
  call void @llvm.lifetime.end.p0(i64 8, ptr %4) #15
  %15 = load i64, ptr %2, align 8
  ret i64 %15
}

; Function Attrs: nounwind sspstrong uwtable
define internal i64 @load_chained_certificates(i64 noundef %0) #0 {
  %2 = alloca i64, align 8
  %3 = alloca i64, align 8
  %4 = alloca ptr, align 8
  %5 = alloca i64, align 8
  %6 = alloca i32, align 4
  store i64 %0, ptr %3, align 8, !tbaa !11
  call void @llvm.lifetime.start.p0(i64 8, ptr %4) #15
  %7 = load i64, ptr %3, align 8, !tbaa !11
  %8 = inttoptr i64 %7 to ptr
  store ptr %8, ptr %4, align 8, !tbaa !17
  call void @llvm.lifetime.start.p0(i64 8, ptr %5) #15
  store i64 4, ptr %5, align 8, !tbaa !11
  %9 = load ptr, ptr %4, align 8, !tbaa !17
  %10 = call i64 @load_chained_certificates_DER(ptr noundef %9)
  store i64 %10, ptr %5, align 8, !tbaa !11
  %11 = load i64, ptr %5, align 8, !tbaa !11
  %12 = icmp ne i64 %11, 4
  br i1 %12, label %13, label %15

13:                                               ; preds = %1
  %14 = load i64, ptr %5, align 8, !tbaa !11
  store i64 %14, ptr %2, align 8
  store i32 1, ptr %6, align 4
  br label %29

15:                                               ; preds = %1
  br label %16

16:                                               ; preds = %15
  %17 = load ptr, ptr %4, align 8, !tbaa !17
  %18 = call i64 @BIO_ctrl(ptr noundef %17, i32 noundef 1, i64 noundef 0, ptr noundef null)
  call void @ossl_clear_error()
  br label %19

19:                                               ; preds = %16
  br label %20

20:                                               ; preds = %19
  %21 = load ptr, ptr %4, align 8, !tbaa !17
  %22 = call i64 @load_chained_certificates_PEM(ptr noundef %21)
  store i64 %22, ptr %5, align 8, !tbaa !11
  %23 = load i64, ptr %5, align 8, !tbaa !11
  %24 = icmp ne i64 %23, 4
  br i1 %24, label %25, label %27

25:                                               ; preds = %20
  %26 = load i64, ptr %5, align 8, !tbaa !11
  store i64 %26, ptr %2, align 8
  store i32 1, ptr %6, align 4
  br label %29

27:                                               ; preds = %20
  %28 = load i64, ptr @eX509CertError, align 8, !tbaa !11
  call void (i64, ptr, ...) @ossl_raise(i64 noundef %28, ptr noundef @.str.35) #16
  unreachable

29:                                               ; preds = %25, %13
  call void @llvm.lifetime.end.p0(i64 8, ptr %5) #15
  call void @llvm.lifetime.end.p0(i64 8, ptr %4) #15
  %30 = load i64, ptr %2, align 8
  ret i64 %30
}