; Function Attrs: nounwind sspstrong uwtable
define internal range(i64 5, 4) i64 @load_chained_certificates(i64 noundef %0) #0 {
  %2 = alloca %struct.load_chained_certificates_arguments, align 8
  %3 = alloca %struct.load_chained_certificates_arguments, align 8
  %4 = alloca %struct.load_chained_certificates_arguments, align 8
  %5 = inttoptr i64 %0 to ptr
  %6 = tail call ptr @d2i_X509_bio(ptr noundef %5, ptr noundef null) #5
  %7 = icmp eq ptr %6, null
  br i1 %7, label %load_chained_certificates_DER.exit.thread, label %load_chained_certificates_DER.exit

load_chained_certificates_DER.exit.thread:        ; preds = %1
  tail call void @ossl_clear_error() #5
  br label %12

load_chained_certificates_DER.exit:               ; preds = %1
  call void @llvm.lifetime.start.p0(i64 16, ptr nonnull %4) #5
  store i64 4, ptr %4, align 8, !tbaa !45
  %8 = getelementptr inbounds nuw i8, ptr %4, i64 8
  store ptr %6, ptr %8, align 8, !tbaa !48
  %9 = ptrtoint ptr %4 to i64
  %10 = call i64 @rb_ensure(ptr noundef nonnull @load_chained_certificates_append_push, i64 noundef %9, ptr noundef nonnull @load_chained_certificate_append_ensure, i64 noundef %9) #5
  %11 = load i64, ptr %4, align 8, !tbaa !45
  call void @llvm.lifetime.end.p0(i64 16, ptr nonnull %4) #5
  %.not = icmp eq i64 %11, 4
  br i1 %.not, label %12, label %51

12:                                               ; preds = %load_chained_certificates_DER.exit.thread, %load_chained_certificates_DER.exit
  %13 = call i64 @BIO_ctrl(ptr noundef %5, i32 noundef 1, i64 noundef 0, ptr noundef null) #5
  call void @ossl_clear_error() #5
  %14 = call ptr @PEM_read_bio_X509(ptr noundef %5, ptr noundef null, ptr noundef null, ptr noundef null) #5
  %15 = icmp eq ptr %14, null
  br i1 %15, label %16, label %26

16:                                               ; preds = %12
  %17 = call i64 @ERR_peek_last_error() #5
  %18 = and i64 %17, 2147483648
  %.not.i.i = icmp eq i64 %18, 0
  %19 = trunc i64 %17 to i32
  %.0.v.i.i = select i1 %.not.i.i, i32 8388607, i32 2147483647
  %.0.i.i = and i32 %.0.v.i.i, %19
  %20 = icmp eq i32 %.0.i.i, 108
  br i1 %20, label %21, label %22

21:                                               ; preds = %16
  call void @ossl_clear_error() #5
  br label %22

22:                                               ; preds = %21, %16
  %23 = call i64 @ERR_peek_last_error() #5
  %.not13.i = icmp eq i64 %23, 0
  br i1 %.not13.i, label %load_chained_certificates_PEM.exit.thread, label %24

24:                                               ; preds = %22
  %25 = load i64, ptr @eX509CertError, align 8, !tbaa !6
  call void (i64, ptr, ...) @ossl_raise(i64 noundef %25, ptr noundef null) #6
  unreachable

26:                                               ; preds = %12
  call void @llvm.lifetime.start.p0(i64 16, ptr nonnull %3) #5
  store i64 4, ptr %3, align 8, !tbaa !45
  %27 = getelementptr inbounds nuw i8, ptr %3, i64 8
  store ptr %14, ptr %27, align 8, !tbaa !48
  %28 = ptrtoint ptr %3 to i64
  %29 = call i64 @rb_ensure(ptr noundef nonnull @load_chained_certificates_append_push, i64 noundef %28, ptr noundef nonnull @load_chained_certificate_append_ensure, i64 noundef %28) #5
  %30 = load i64, ptr %3, align 8, !tbaa !45
  call void @llvm.lifetime.end.p0(i64 16, ptr nonnull %3) #5
  %31 = call ptr @PEM_read_bio_X509(ptr noundef %5, ptr noundef null, ptr noundef null, ptr noundef null) #5
  %.not17.i = icmp eq ptr %31, null
  br i1 %.not17.i, label %._crit_edge.i, label %.lr.ph.i

.lr.ph.i:                                         ; preds = %26
  %32 = getelementptr inbounds nuw i8, ptr %2, i64 8
  %33 = ptrtoint ptr %2 to i64
  br label %34

34:                                               ; preds = %34, %.lr.ph.i
  %35 = phi ptr [ %31, %.lr.ph.i ], [ %37, %34 ]
  call void @llvm.lifetime.start.p0(i64 16, ptr nonnull %2) #5
  store i64 %30, ptr %2, align 8, !tbaa !45
  store ptr %35, ptr %32, align 8, !tbaa !48
  %36 = call i64 @rb_ensure(ptr noundef nonnull @load_chained_certificates_append_push, i64 noundef %33, ptr noundef nonnull @load_chained_certificate_append_ensure, i64 noundef %33) #5
  call void @llvm.lifetime.end.p0(i64 16, ptr nonnull %2) #5
  %37 = call ptr @PEM_read_bio_X509(ptr noundef %5, ptr noundef null, ptr noundef null, ptr noundef null) #5
  %.not.i = icmp eq ptr %37, null
  br i1 %.not.i, label %._crit_edge.i, label %34, !llvm.loop !49

._crit_edge.i:                                    ; preds = %34, %26
  %38 = call i64 @ERR_peek_last_error() #5
  %39 = and i64 %38, 2147483648
  %.not.i14.i = icmp eq i64 %39, 0
  %40 = trunc i64 %38 to i32
  %.0.v.i15.i = select i1 %.not.i14.i, i32 8388607, i32 2147483647
  %.0.i16.i = and i32 %.0.v.i15.i, %40
  %41 = icmp eq i32 %.0.i16.i, 108
  br i1 %41, label %42, label %43

42:                                               ; preds = %._crit_edge.i
  call void @ossl_clear_error() #5
  br label %load_chained_certificates_PEM.exit

43:                                               ; preds = %._crit_edge.i
  %44 = call i64 @BIO_ctrl(ptr noundef %5, i32 noundef 2, i64 noundef 0, ptr noundef null) #5
  %45 = and i64 %44, 4294967295
  %.not11.i = icmp eq i64 %45, 0
  br i1 %.not11.i, label %48, label %46

46:                                               ; preds = %43
  %47 = call i64 @ERR_peek_last_error() #5
  %.not12.i = icmp eq i64 %47, 0
  br i1 %.not12.i, label %load_chained_certificates_PEM.exit, label %48

48:                                               ; preds = %46, %43
  %49 = load i64, ptr @eX509CertError, align 8, !tbaa !6
  call void (i64, ptr, ...) @ossl_raise(i64 noundef %49, ptr noundef null) #6
  unreachable

load_chained_certificates_PEM.exit:               ; preds = %42, %46
  %.not10 = icmp eq i64 %30, 4
  br i1 %.not10, label %load_chained_certificates_PEM.exit.thread, label %51

load_chained_certificates_PEM.exit.thread:        ; preds = %22, %load_chained_certificates_PEM.exit
  %50 = load i64, ptr @eX509CertError, align 8, !tbaa !6
  call void (i64, ptr, ...) @ossl_raise(i64 noundef %50, ptr noundef nonnull @.str.35) #6
  unreachable

51:                                               ; preds = %load_chained_certificates_PEM.exit, %load_chained_certificates_DER.exit
  %.0 = phi i64 [ %11, %load_chained_certificates_DER.exit ], [ %30, %load_chained_certificates_PEM.exit ]
  ret i64 %.0
}